; Function Attrs: inlinehint nounwind uwtable
define internal fastcc void @agxbmore(i64 noundef %0) unnamed_addr #11 {
  %2 = load i8, ptr getelementptr inbounds nuw (i8, ptr @last, i64 31), align 1, !tbaa !9
  %.not.i = icmp eq i8 %2, -1
  %3 = load i64, ptr getelementptr inbounds nuw (i8, ptr @last, i64 16), align 8
  %.0.i = select i1 %.not.i, i64 %3, i64 31
  %4 = icmp eq i64 %.0.i, 0
  %5 = shl i64 %.0.i, 1
  %6 = select i1 %4, i64 8192, i64 %5
  %7 = add i64 %.0.i, %0
  %spec.select = tail call i64 @llvm.umax.i64(i64 %7, i64 %6)
  %8 = zext i8 %2 to i64
  br i1 %.not.i, label %9, label %24

9:                                                ; preds = %1
  %10 = load ptr, ptr @last, align 8, !tbaa !9
  %11 = icmp eq i64 %spec.select, 0
  br i1 %11, label %12, label %13

12:                                               ; preds = %9
  tail call void @free(ptr noundef %10) #19
  br label %gv_recalloc.exit

13:                                               ; preds = %9
  %14 = tail call ptr @realloc(ptr noundef %10, i64 noundef %spec.select) #25
  %15 = icmp eq ptr %14, null
  br i1 %15, label %16, label %19

16:                                               ; preds = %13
  %17 = load ptr, ptr @stderr, align 8, !tbaa !10
  %18 = tail call i32 (ptr, ptr, ...) @fprintf(ptr noundef %17, ptr noundef nonnull @.str.1, i64 noundef %spec.select) #20
  tail call fastcc void @graphviz_exit() #21
  unreachable

19:                                               ; preds = %13
  %20 = icmp ugt i64 %spec.select, %3
  br i1 %20, label %21, label %gv_recalloc.exit

21:                                               ; preds = %19
  %22 = getelementptr inbounds nuw i8, ptr %14, i64 %3
  %23 = sub nuw i64 %spec.select, %3
  tail call void @llvm.memset.p0.i64(ptr nonnull align 1 %22, i8 0, i64 %23, i1 false)
  br label %gv_recalloc.exit

24:                                               ; preds = %1
  %25 = icmp ne i64 %spec.select, 0
  %26 = tail call noalias ptr @calloc(i64 noundef %spec.select, i64 noundef 1) #26
  %27 = icmp eq ptr %26, null
  %or.cond3.i = and i1 %25, %27
  br i1 %or.cond3.i, label %28, label %gv_calloc.exit

28:                                               ; preds = %24
  %29 = load ptr, ptr @stderr, align 8, !tbaa !10
  %30 = tail call i32 (ptr, ptr, ...) @fprintf(ptr noundef %29, ptr noundef nonnull @.str.1, i64 noundef %spec.select) #20
  tail call fastcc void @graphviz_exit() #21
  unreachable

gv_calloc.exit:                                   ; preds = %24
  tail call void @llvm.memcpy.p0.p0.i64(ptr align 1 %26, ptr nonnull align 8 @last, i64 %8, i1 false)
  store i64 %8, ptr getelementptr inbounds nuw (i8, ptr @last, i64 8), align 8, !tbaa !9
  br label %gv_recalloc.exit

gv_recalloc.exit:                                 ; preds = %21, %19, %12, %gv_calloc.exit
  %.0 = phi ptr [ %26, %gv_calloc.exit ], [ null, %12 ], [ %14, %21 ], [ %14, %19 ]
  store ptr %.0, ptr @last, align 8, !tbaa !9
  store i64 %spec.select, ptr getelementptr inbounds nuw (i8, ptr @last, i64 16), align 8, !tbaa !9
  store i8 -1, ptr getelementptr inbounds nuw (i8, ptr @last, i64 31), align 1, !tbaa !9
  ret void
}